; Function Attrs: nounwind sspstrong uwtable
define internal i64 @rb_mod_autoload_p(i32 noundef %0, ptr noundef readonly captures(none) %1, i64 noundef %2) #0 {
  %4 = alloca i64, align 8
  %5 = add i32 %0, -3
  %or.cond.i = icmp ult i32 %5, -2
  br i1 %or.cond.i, label %6, label %rb_check_arity.exit

6:                                                ; preds = %3
  tail call void @rb_error_arity(i32 noundef %0, i32 noundef 1, i32 noundef 2) #21
  unreachable

rb_check_arity.exit:                              ; preds = %3
  %7 = icmp eq i32 %0, 1
  br i1 %7, label %14, label %8

8:                                                ; preds = %rb_check_arity.exit
  %9 = getelementptr i8, ptr %1, i64 8
  %10 = load i64, ptr %9, align 8, !tbaa !42
  %11 = and i64 %10, -5
  %12 = icmp ne i64 %11, 0
  %13 = zext i1 %12 to i32
  br label %14

14:                                               ; preds = %rb_check_arity.exit, %8
  %15 = phi i32 [ %13, %8 ], [ 1, %rb_check_arity.exit ]
  call void @llvm.lifetime.start.p0(i64 8, ptr nonnull %4) #7
  %16 = load i64, ptr %1, align 8, !tbaa !42
  store i64 %16, ptr %4, align 8, !tbaa !42
  %17 = call i64 @rb_check_id(ptr noundef nonnull %4) #7
  %.not = icmp eq i64 %17, 0
  br i1 %.not, label %20, label %18

18:                                               ; preds = %14
  %19 = call i64 @rb_autoload_at_p(i64 noundef %2, i64 noundef %17, i32 noundef %15) #7
  br label %20

20:                                               ; preds = %14, %18
  %.0 = phi i64 [ %19, %18 ], [ 4, %14 ]
  call void @llvm.lifetime.end.p0(i64 8, ptr nonnull %4) #7
  ret i64 %.0
}